target datalayout = "e-m:e-p270:32:32-p271:32:32-p272:64:64-i64:64-i128:128-f80:128-n8:16:32:64-S128"
target triple = "x86_64-pc-linux-gnu"

%struct._packet_info = type { ptr, ptr, i32, i32, %struct.nstime_t, %struct.nstime_t, %struct.nstime_t, i8, ptr, ptr, ptr, ptr, %struct._address, %struct._address, %struct._address, %struct._address, %struct._address, %struct._address, i32, ptr, i8, [3 x i8], %struct.anon, i32, i32, i32, i32, ptr, i8, ptr, ptr, i16, i16, i32, i32, i16, i32, i32, ptr, ptr, ptr, i8, i8, i16, i16, i16, i32, i16, i16, ptr, ptr, ptr, ptr, ptr, i32, i32 }
%struct.nstime_t = type { i64, i32 }
%struct._address = type { i32, i32, ptr, ptr }
%struct.anon = type { i8, [3 x i8] }

@hf_rtls_signature = internal global i32 0, align 4
@ett_rtls = internal global i32 0, align 4
@.str.133 = private unnamed_addr constant [5 x i8] c"RTLS\00", align 1
@proto_rtls = internal global i32 0, align 4
@.str.177 = private unnamed_addr constant [13 x i8] c"(unknown %d)\00", align 1

; Function Attrs: null_pointer_is_valid sspstrong uwtable
define internal i32 @dissect_rtls(ptr noundef %0, ptr noundef %1, ptr noundef %2, ptr noundef %3) #0 {
  %5 = alloca i32, align 4
  %6 = alloca ptr, align 8
  %7 = alloca ptr, align 8
  %8 = alloca ptr, align 8
  %9 = alloca ptr, align 8
  %10 = alloca ptr, align 8
  %11 = alloca ptr, align 8
  %12 = alloca i32, align 4
  %13 = alloca i32, align 4
  %14 = alloca i32, align 4
  store ptr %0, ptr %6, align 8
  store ptr %1, ptr %7, align 8
  store ptr %2, ptr %8, align 8
  store ptr %3, ptr %9, align 8
  call void @llvm.lifetime.start.p0(i64 8, ptr %10) #5
  call void @llvm.lifetime.start.p0(i64 8, ptr %11) #5
  call void @llvm.lifetime.start.p0(i64 4, ptr %12) #5
  store i32 0, ptr %12, align 4
  call void @llvm.lifetime.start.p0(i64 4, ptr %13) #5
  %15 = load ptr, ptr %6, align 8
  %16 = call i32 @tvb_reported_length(ptr noundef %15)
  %17 = icmp ult i32 %16, 36
  br i1 %17, label %18, label %19

18:                                               ; preds = %4
  store i32 0, ptr %5, align 4
  store i32 1, ptr %14, align 4
  br label %58

19:                                               ; preds = %4
  %20 = load ptr, ptr %7, align 8
  %21 = getelementptr inbounds nuw %struct._packet_info, ptr %20, i32 0, i32 1
  %22 = load ptr, ptr %21, align 8
  call void @col_set_str(ptr noundef %22, i32 noundef 35, ptr noundef @.str.133)
  %23 = load ptr, ptr %8, align 8
  %24 = load i32, ptr @proto_rtls, align 4
  %25 = load ptr, ptr %6, align 8
  %26 = call ptr @proto_tree_add_item(ptr noundef %23, i32 noundef %24, ptr noundef %25, i32 noundef 0, i32 noundef -1, i32 noundef 0)
  store ptr %26, ptr %10, align 8
  %27 = load ptr, ptr %10, align 8
  %28 = load i32, ptr @ett_rtls, align 4
  %29 = call ptr @proto_item_add_subtree(ptr noundef %27, i32 noundef %28)
  store ptr %29, ptr %11, align 8
  %30 = load ptr, ptr %6, align 8
  %31 = load i32, ptr %12, align 4
  %32 = call zeroext i16 @tvb_get_ntohs(ptr noundef %30, i32 noundef %31)
  %33 = zext i16 %32 to i32
  store i32 %33, ptr %13, align 4
  %34 = load ptr, ptr %7, align 8
  %35 = getelementptr inbounds nuw %struct._packet_info, ptr %34, i32 0, i32 1
  %36 = load ptr, ptr %35, align 8
  %37 = load i32, ptr %13, align 4
  %38 = call ptr @val_to_str(i32 noundef %37, ptr noundef @rtls_message_type_vals, ptr noundef @.str.177)
  call void @col_add_str(ptr noundef %36, i32 noundef 25, ptr noundef %38)
  %39 = load ptr, ptr %6, align 8
  %40 = load ptr, ptr %7, align 8
  %41 = load ptr, ptr %11, align 8
  %42 = load i32, ptr %12, align 4
  %43 = call i32 @dissect_rtls_header(ptr noundef %39, ptr noundef %40, ptr noundef %41, i32 noundef %42, ptr noundef null)
  store i32 %43, ptr %12, align 4
  %44 = load ptr, ptr %6, align 8
  %45 = load ptr, ptr %7, align 8
  %46 = load ptr, ptr %11, align 8
  %47 = load i32, ptr %12, align 4
  %48 = load i32, ptr %13, align 4
  %49 = call i32 @dissect_rtls_message_type(ptr noundef %44, ptr noundef %45, ptr noundef %46, i32 noundef %47, i32 noundef %48)
  store i32 %49, ptr %12, align 4
  %50 = load ptr, ptr %11, align 8
  %51 = load i32, ptr @hf_rtls_signature, align 4
  %52 = load ptr, ptr %6, align 8
  %53 = load i32, ptr %12, align 4
  %54 = call ptr @proto_tree_add_item(ptr noundef %50, i32 noundef %51, ptr noundef %52, i32 noundef %53, i32 noundef 20, i32 noundef 0)
  %55 = load i32, ptr %12, align 4
  %56 = add i32 %55, 20
  store i32 %56, ptr %12, align 4
  %57 = load i32, ptr %12, align 4
  store i32 %57, ptr %5, align 4
  store i32 1, ptr %14, align 4
  br label %58

58:                                               ; preds = %19, %18
  call void @llvm.lifetime.end.p0(i64 4, ptr %13) #5
  call void @llvm.lifetime.end.p0(i64 4, ptr %12) #5
  call void @llvm.lifetime.end.p0(i64 8, ptr %11) #5
  call void @llvm.lifetime.end.p0(i64 8, ptr %10) #5
  %59 = load i32, ptr %5, align 4
  ret i32 %59
}