; Function Attrs: null_pointer_is_valid sspstrong uwtable
define internal noundef i32 @dissect_rtls(ptr noundef %0, ptr noundef %1, ptr noundef %2, ptr readnone captures(none) %3) #0 {
  %5 = tail call i32 @tvb_reported_length(ptr noundef %0)
  %6 = icmp ult i32 %5, 36
  br i1 %6, label %23, label %7

7:                                                ; preds = %4
  %8 = getelementptr inbounds nuw i8, ptr %1, i64 8
  %9 = load ptr, ptr %8, align 8
  tail call void @col_set_str(ptr noundef %9, i32 noundef 35, ptr noundef nonnull @.str.133)
  %10 = load i32, ptr @proto_rtls, align 4
  %11 = tail call ptr @proto_tree_add_item(ptr noundef %2, i32 noundef %10, ptr noundef %0, i32 noundef 0, i32 noundef -1, i32 noundef 0)
  %12 = load i32, ptr @ett_rtls, align 4
  %13 = tail call ptr @proto_item_add_subtree(ptr noundef %11, i32 noundef %12)
  %14 = tail call zeroext i16 @tvb_get_ntohs(ptr noundef %0, i32 noundef 0)
  %15 = zext i16 %14 to i32
  %16 = load ptr, ptr %8, align 8
  %17 = tail call ptr @val_to_str(i32 noundef %15, ptr noundef nonnull @rtls_message_type_vals, ptr noundef nonnull @.str.177)
  tail call void @col_add_str(ptr noundef %16, i32 noundef 25, ptr noundef %17)
  %18 = tail call fastcc i32 @dissect_rtls_header(ptr noundef %0, ptr noundef %13, i32 noundef 0, ptr noundef null)
  %19 = tail call fastcc i32 @dissect_rtls_message_type(ptr noundef %0, ptr noundef %1, ptr noundef %13, i32 noundef %18, i32 noundef %15)
  %20 = load i32, ptr @hf_rtls_signature, align 4
  %21 = tail call ptr @proto_tree_add_item(ptr noundef %13, i32 noundef %20, ptr noundef %0, i32 noundef %19, i32 noundef 20, i32 noundef 0)
  %22 = add i32 %19, 20
  br label %23

23:                                               ; preds = %4, %7
  %.0 = phi i32 [ %22, %7 ], [ 0, %4 ]
  ret i32 %.0
}